; Function Attrs: mustprogress uwtable
define internal void @_ZN3gmx12_GLOBAL__N_122CMainCommandLineModule4initEPNS_25CommandLineModuleSettingsE(ptr nocapture noundef nonnull readonly align 8 dereferenceable(40) %0, ptr noundef %1) unnamed_addr #0 align 2 {
  %3 = getelementptr inbounds i8, ptr %0, i64 32
  %4 = load ptr, ptr %3, align 8
  %.not = icmp eq ptr %4, null
  br i1 %.not, label %6, label %5

5:                                                ; preds = %2
  tail call void %4(ptr noundef %1)
  br label %6

6:                                                ; preds = %5, %2
  ret void
}